; Function Attrs: mustprogress nounwind uwtable
define hidden noundef ptr @_ZN12ciMethodData22next_extra_data_layoutEP10DataLayout(ptr nocapture noundef nonnull readonly align 8 dereferenceable(176) %0, ptr noundef nonnull %1) local_unnamed_addr #1 align 2 {
_ZN12ciMethodData23next_data_layout_helperEP10DataLayoutb.exit:
  %2 = getelementptr inbounds i8, ptr %0, i64 32
  %3 = load ptr, ptr %2, align 8
  %4 = ptrtoint ptr %1 to i64
  %5 = ptrtoint ptr %3 to i64
  %6 = sub i64 %4, %5
  %7 = trunc i64 %6 to i32
  %8 = tail call noundef i32 @_ZN10DataLayout10cell_countEv(ptr noundef nonnull align 8 dereferenceable(16) %1) #12
  %9 = shl nsw i32 %8, 3
  %10 = add nsw i32 %9, 8
  %11 = add nsw i32 %10, %7
  %12 = getelementptr inbounds i8, ptr %0, i64 24
  %13 = load i32, ptr %12, align 8
  %14 = icmp sgt i32 %13, %11
  %15 = getelementptr inbounds i8, ptr %0, i64 28
  %16 = load i32, ptr %15, align 4
  %17 = add nsw i32 %16, %13
  %18 = icmp sle i32 %17, %11
  %19 = select i1 %14, i1 true, i1 %18
  %20 = load ptr, ptr %2, align 8
  %21 = sext i32 %11 to i64
  %22 = getelementptr inbounds i8, ptr %20, i64 %21
  %.0.i = select i1 %19, ptr null, ptr %22
  ret ptr %.0.i
}